ARM GAS  C:\Users\Shahed\AppData\Local\Temp\ccVlMf9h.s 			page 1


   1              		.cpu cortex-m0
   2              		.fpu softvfp
   3              		.eabi_attribute 20, 1
   4              		.eabi_attribute 21, 1
   5              		.eabi_attribute 23, 3
   6              		.eabi_attribute 24, 1
   7              		.eabi_attribute 25, 1
   8              		.eabi_attribute 26, 1
   9              		.eabi_attribute 30, 6
  10              		.eabi_attribute 34, 0
  11              		.eabi_attribute 18, 4
  12              		.code	16
  13              		.file	"BLE_HTSS.c"
  14              		.text
  15              	.Ltext0:
  16              		.cfi_sections	.debug_frame
  17              		.global	htssInterval
  18              		.data
  19              		.align	2
  20              		.type	htssInterval, %object
  21              		.size	htssInterval, 4
  22              	htssInterval:
  23 0000 01000000 		.word	1
  24              		.bss
  25              	htssIndication:
  26 0000 00       		.space	1
  27              		.comm	connectionHandle,2,4
  28              		.section	.text.GenericEventHandler,"ax",%progbits
  29              		.align	2
  30              		.global	GenericEventHandler
  31              		.code	16
  32              		.thumb_func
  33              		.type	GenericEventHandler, %function
  34              	GenericEventHandler:
  35              	.LFB35:
  36              		.file 1 ".\\BLE_HTSS.c"
   1:.\BLE_HTSS.c  **** /****************************************************************************
   2:.\BLE_HTSS.c  **** * File Name: BLE_HTSS.c
   3:.\BLE_HTSS.c  **** *
   4:.\BLE_HTSS.c  **** * Version: 1.0
   5:.\BLE_HTSS.c  **** *
   6:.\BLE_HTSS.c  **** * Description:
   7:.\BLE_HTSS.c  **** * This file implements functions related to BLE.
   8:.\BLE_HTSS.c  **** *
   9:.\BLE_HTSS.c  **** * Note:
  10:.\BLE_HTSS.c  **** * 
  11:.\BLE_HTSS.c  **** * Owner:
  12:.\BLE_HTSS.c  **** * PMAD
  13:.\BLE_HTSS.c  **** *
  14:.\BLE_HTSS.c  **** ******************************************************************************
  15:.\BLE_HTSS.c  **** * Copyright (2014), Cypress Semiconductor Corporation.
  16:.\BLE_HTSS.c  **** ******************************************************************************
  17:.\BLE_HTSS.c  **** * This software is owned by Cypress Semiconductor Corporation (Cypress) and is
  18:.\BLE_HTSS.c  **** * protected by and subject to worldwide patent protection (United States and
  19:.\BLE_HTSS.c  **** * foreign), United States copyright laws and international treaty provisions.
  20:.\BLE_HTSS.c  **** * Cypress hereby grants to licensee a personal, non-exclusive, non-transferable
  21:.\BLE_HTSS.c  **** * license to copy, use, modify, create derivative works of, and compile the
ARM GAS  C:\Users\Shahed\AppData\Local\Temp\ccVlMf9h.s 			page 2


  22:.\BLE_HTSS.c  **** * Cypress Source Code and derivative works for the sole purpose of creating
  23:.\BLE_HTSS.c  **** * custom software in support of licensee product to be used only in conjunction
  24:.\BLE_HTSS.c  **** * with a Cypress integrated circuit as specified in the applicable agreement.
  25:.\BLE_HTSS.c  **** * Any reproduction, modification, translation, compilation, or representation of
  26:.\BLE_HTSS.c  **** * this software except as specified above is prohibited without the express
  27:.\BLE_HTSS.c  **** * written permission of Cypress.
  28:.\BLE_HTSS.c  **** *
  29:.\BLE_HTSS.c  **** * Disclaimer: CYPRESS MAKES NO WARRANTY OF ANY KIND, EXPRESS OR IMPLIED, WITH
  30:.\BLE_HTSS.c  **** * REGARD TO THIS MATERIAL, INCLUDING, BUT NOT LIMITED TO, THE IMPLIED
  31:.\BLE_HTSS.c  **** * WARRANTIES OF MERCHANTABILITY AND FITNESS FOR A PARTICULAR PURPOSE.
  32:.\BLE_HTSS.c  **** * Cypress reserves the right to make changes without further notice to the
  33:.\BLE_HTSS.c  **** * materials described herein. Cypress does not assume any liability arising out
  34:.\BLE_HTSS.c  **** * of the application or use of any product or circuit described herein. Cypress
  35:.\BLE_HTSS.c  **** * does not authorize its products for use as critical components in life-support
  36:.\BLE_HTSS.c  **** * systems where a malfunction or failure may reasonably be expected to result in
  37:.\BLE_HTSS.c  **** * significant injury to the user. The inclusion of Cypress' product in a life-
  38:.\BLE_HTSS.c  **** * support systems application implies that the manufacturer assumes all risk of
  39:.\BLE_HTSS.c  **** * such use and in doing so indemnifies Cypress against all charges. Use may be
  40:.\BLE_HTSS.c  **** * limited by and subject to the applicable Cypress software license agreement.
  41:.\BLE_HTSS.c  **** *****************************************************************************/
  42:.\BLE_HTSS.c  **** 
  43:.\BLE_HTSS.c  **** 
  44:.\BLE_HTSS.c  **** /*****************************************************************************
  45:.\BLE_HTSS.c  **** * Included headers
  46:.\BLE_HTSS.c  **** *****************************************************************************/
  47:.\BLE_HTSS.c  **** #include "stdbool.h"
  48:.\BLE_HTSS.c  **** #include "BLE_HTSS.h"
  49:.\BLE_HTSS.c  **** #include "CommonFunctions.h"
  50:.\BLE_HTSS.c  **** #include "WatchdogTimer.h"
  51:.\BLE_HTSS.c  **** 
  52:.\BLE_HTSS.c  **** /*****************************************************************************
  53:.\BLE_HTSS.c  **** * Macros and constants
  54:.\BLE_HTSS.c  **** *****************************************************************************/
  55:.\BLE_HTSS.c  **** #define             REFRESH_INTERVAL                    (1000u)
  56:.\BLE_HTSS.c  **** #define             HTSS_TEMPERATURE_MEASURE_SIZE       (6u)
  57:.\BLE_HTSS.c  **** 
  58:.\BLE_HTSS.c  **** /* htssInterval holds the Health Thermometer Service measurement interval */
  59:.\BLE_HTSS.c  **** uint32 htssInterval = DEFAULT_MEASUREMENT_INTERVAL;
  60:.\BLE_HTSS.c  **** 
  61:.\BLE_HTSS.c  **** /* Indicates the status of Indication */
  62:.\BLE_HTSS.c  **** static bool htssIndication = false;
  63:.\BLE_HTSS.c  **** 
  64:.\BLE_HTSS.c  **** /* Connection handle used for transmitting information over BLE */
  65:.\BLE_HTSS.c  **** CYBLE_CONN_HANDLE_T  connectionHandle;	
  66:.\BLE_HTSS.c  **** 
  67:.\BLE_HTSS.c  **** /*****************************************************************************
  68:.\BLE_HTSS.c  **** * Function Name: GenericEventHandler()
  69:.\BLE_HTSS.c  **** ******************************************************************************
  70:.\BLE_HTSS.c  **** * Summary:
  71:.\BLE_HTSS.c  **** * Handles the generic events generated by stack and take necessary actions 
  72:.\BLE_HTSS.c  **** * when event is received.
  73:.\BLE_HTSS.c  **** *
  74:.\BLE_HTSS.c  **** * Parameters:
  75:.\BLE_HTSS.c  **** *  eventCode - the event code
  76:.\BLE_HTSS.c  **** *  *event_params - the event parameters
  77:.\BLE_HTSS.c  **** *
  78:.\BLE_HTSS.c  **** * Return:
ARM GAS  C:\Users\Shahed\AppData\Local\Temp\ccVlMf9h.s 			page 3


  79:.\BLE_HTSS.c  **** *  None.
  80:.\BLE_HTSS.c  **** *
  81:.\BLE_HTSS.c  **** * Side Effects:
  82:.\BLE_HTSS.c  **** * None
  83:.\BLE_HTSS.c  **** *
  84:.\BLE_HTSS.c  **** * Note:
  85:.\BLE_HTSS.c  **** *
  86:.\BLE_HTSS.c  **** *****************************************************************************/
  87:.\BLE_HTSS.c  **** void GenericEventHandler(uint32 event, void *eventParam)
  88:.\BLE_HTSS.c  **** {
  37              		.loc 1 88 0
  38              		.cfi_startproc
  39 0000 80B5     		push	{r7, lr}
  40              		.cfi_def_cfa_offset 8
  41              		.cfi_offset 7, -8
  42              		.cfi_offset 14, -4
  43 0002 82B0     		sub	sp, sp, #8
  44              		.cfi_def_cfa_offset 16
  45 0004 00AF     		add	r7, sp, #0
  46              		.cfi_def_cfa_register 7
  47 0006 7860     		str	r0, [r7, #4]
  48 0008 3960     		str	r1, [r7]
  89:.\BLE_HTSS.c  ****   switch(event)
  49              		.loc 1 89 0
  50 000a 7B68     		ldr	r3, [r7, #4]
  51 000c 022B     		cmp	r3, #2
  52 000e 0ED0     		beq	.L3
  53 0010 02D8     		bhi	.L4
  54 0012 012B     		cmp	r3, #1
  55 0014 05D0     		beq	.L5
  90:.\BLE_HTSS.c  ****   {
  91:.\BLE_HTSS.c  ****     /* This event is received when component is Started */
  92:.\BLE_HTSS.c  ****     case CYBLE_EVT_STACK_ON: 					
  93:.\BLE_HTSS.c  ****       /* Stop watchdog to reduce power consumption during advertising */
  94:.\BLE_HTSS.c  ****       WatchdogTimer_Stop();
  95:.\BLE_HTSS.c  ****       /* Start Advertisement and enter Discoverable mode*/
  96:.\BLE_HTSS.c  ****       CyBle_GappStartAdvertisement(CYBLE_ADVERTISING_FAST);			
  97:.\BLE_HTSS.c  ****     break;
  98:.\BLE_HTSS.c  ****           
  99:.\BLE_HTSS.c  ****     /* This event is received when device is disconnected or advetising times out*/
 100:.\BLE_HTSS.c  ****     case CYBLE_EVT_GAP_DEVICE_DISCONNECTED:		
 101:.\BLE_HTSS.c  ****     case CYBLE_EVT_TIMEOUT:                     
 102:.\BLE_HTSS.c  ****       /* Sets the ENABLE_HIBERNATE flag to put system in Hibernate mode */
 103:.\BLE_HTSS.c  ****       SystemFlag |= ENABLE_HIBERNATE;
 104:.\BLE_HTSS.c  ****     break;
 105:.\BLE_HTSS.c  ****     
 106:.\BLE_HTSS.c  ****     /* This event is received when connection is established */
 107:.\BLE_HTSS.c  ****     case CYBLE_EVT_GATT_CONNECT_IND:
 108:.\BLE_HTSS.c  ****         /* Start watchdog timer with 1s refresh interval */
 109:.\BLE_HTSS.c  ****         /* Note: For this application, wakeup should be 1s because htssInterval
 110:.\BLE_HTSS.c  ****         *  resolution is configured as 1s */
 111:.\BLE_HTSS.c  ****         WatchdogTimer_Start(REFRESH_INTERVAL);
 112:.\BLE_HTSS.c  ****         /* Retrieve BLE connection handle */
 113:.\BLE_HTSS.c  ****         connectionHandle = *(CYBLE_CONN_HANDLE_T *) eventParam;
 114:.\BLE_HTSS.c  ****     break;
 115:.\BLE_HTSS.c  ****         
 116:.\BLE_HTSS.c  ****     default:
ARM GAS  C:\Users\Shahed\AppData\Local\Temp\ccVlMf9h.s 			page 4


 117:.\BLE_HTSS.c  ****       /* Error handling */
 118:.\BLE_HTSS.c  ****     break;
  56              		.loc 1 118 0
  57 0016 21E0     		b	.L1
  58              	.L4:
  89:.\BLE_HTSS.c  ****   switch(event)
  59              		.loc 1 89 0
  60 0018 282B     		cmp	r3, #40
  61 001a 08D0     		beq	.L3
  62 001c 412B     		cmp	r3, #65
  63 001e 0DD0     		beq	.L6
  64              		.loc 1 118 0
  65 0020 1CE0     		b	.L1
  66              	.L5:
  94:.\BLE_HTSS.c  ****       WatchdogTimer_Stop();
  67              		.loc 1 94 0
  68 0022 FFF7FEFF 		bl	WatchdogTimer_Stop
  96:.\BLE_HTSS.c  ****       CyBle_GappStartAdvertisement(CYBLE_ADVERTISING_FAST);			
  69              		.loc 1 96 0
  70 0026 0020     		mov	r0, #0
  71 0028 FFF7FEFF 		bl	CyBle_GappStartAdvertisement
  97:.\BLE_HTSS.c  ****     break;
  72              		.loc 1 97 0
  73 002c 16E0     		b	.L1
  74              	.L3:
 103:.\BLE_HTSS.c  ****       SystemFlag |= ENABLE_HIBERNATE;
  75              		.loc 1 103 0
  76 002e 0D4B     		ldr	r3, .L8
  77 0030 1B68     		ldr	r3, [r3]
  78 0032 0822     		mov	r2, #8
  79 0034 1A43     		orr	r2, r3
  80 0036 0B4B     		ldr	r3, .L8
  81 0038 1A60     		str	r2, [r3]
 104:.\BLE_HTSS.c  ****     break;
  82              		.loc 1 104 0
  83 003a 0FE0     		b	.L1
  84              	.L6:
 111:.\BLE_HTSS.c  ****         WatchdogTimer_Start(REFRESH_INTERVAL);
  85              		.loc 1 111 0
  86 003c FA23     		mov	r3, #250
  87 003e 9B00     		lsl	r3, r3, #2
  88 0040 181C     		mov	r0, r3
  89 0042 FFF7FEFF 		bl	WatchdogTimer_Start
 113:.\BLE_HTSS.c  ****         connectionHandle = *(CYBLE_CONN_HANDLE_T *) eventParam;
  90              		.loc 1 113 0
  91 0046 084A     		ldr	r2, .L8+4
  92 0048 3B68     		ldr	r3, [r7]
  93 004a 111C     		mov	r1, r2
  94 004c 1A1C     		mov	r2, r3
  95 004e 0223     		mov	r3, #2
  96 0050 081C     		mov	r0, r1
  97 0052 111C     		mov	r1, r2
  98 0054 1A1C     		mov	r2, r3
  99 0056 FFF7FEFF 		bl	memcpy
 114:.\BLE_HTSS.c  ****     break;
 100              		.loc 1 114 0
 101 005a C046     		mov	r8, r8
ARM GAS  C:\Users\Shahed\AppData\Local\Temp\ccVlMf9h.s 			page 5


 102              	.L1:
 119:.\BLE_HTSS.c  ****   } 
 120:.\BLE_HTSS.c  **** }
 103              		.loc 1 120 0
 104 005c BD46     		mov	sp, r7
 105 005e 02B0     		add	sp, sp, #8
 106              		@ sp needed
 107 0060 80BD     		pop	{r7, pc}
 108              	.L9:
 109 0062 C046     		.align	2
 110              	.L8:
 111 0064 00000000 		.word	SystemFlag
 112 0068 00000000 		.word	connectionHandle
 113              		.cfi_endproc
 114              	.LFE35:
 115              		.size	GenericEventHandler, .-GenericEventHandler
 116              		.section	.text.HtssEventHandler,"ax",%progbits
 117              		.align	2
 118              		.global	HtssEventHandler
 119              		.code	16
 120              		.thumb_func
 121              		.type	HtssEventHandler, %function
 122              	HtssEventHandler:
 123              	.LFB36:
 121:.\BLE_HTSS.c  **** 
 122:.\BLE_HTSS.c  **** /*****************************************************************************
 123:.\BLE_HTSS.c  **** * Function Name: HtssEventHandler()
 124:.\BLE_HTSS.c  **** ******************************************************************************
 125:.\BLE_HTSS.c  **** * Summary:
 126:.\BLE_HTSS.c  **** * Handles the event generated for the health thermometer service.
 127:.\BLE_HTSS.c  **** *
 128:.\BLE_HTSS.c  **** * Parameters:
 129:.\BLE_HTSS.c  **** *  eventCode - the event code
 130:.\BLE_HTSS.c  **** *  *event_params - the event parameters
 131:.\BLE_HTSS.c  **** *
 132:.\BLE_HTSS.c  **** * Return:
 133:.\BLE_HTSS.c  **** *  None.
 134:.\BLE_HTSS.c  **** *
 135:.\BLE_HTSS.c  **** * Side Effects:
 136:.\BLE_HTSS.c  **** * None
 137:.\BLE_HTSS.c  **** *
 138:.\BLE_HTSS.c  **** * Note:
 139:.\BLE_HTSS.c  **** *
 140:.\BLE_HTSS.c  **** *****************************************************************************/
 141:.\BLE_HTSS.c  **** void HtssEventHandler(uint32 event, void* eventParam)
 142:.\BLE_HTSS.c  **** {
 124              		.loc 1 142 0
 125              		.cfi_startproc
 126 0000 80B5     		push	{r7, lr}
 127              		.cfi_def_cfa_offset 8
 128              		.cfi_offset 7, -8
 129              		.cfi_offset 14, -4
 130 0002 84B0     		sub	sp, sp, #16
 131              		.cfi_def_cfa_offset 24
 132 0004 00AF     		add	r7, sp, #0
 133              		.cfi_def_cfa_register 7
 134 0006 7860     		str	r0, [r7, #4]
ARM GAS  C:\Users\Shahed\AppData\Local\Temp\ccVlMf9h.s 			page 6


 135 0008 3960     		str	r1, [r7]
 143:.\BLE_HTSS.c  ****   CYBLE_HTS_CHAR_VALUE_T *interval;
 144:.\BLE_HTSS.c  ****   switch(event)
 136              		.loc 1 144 0
 137 000a 7B68     		ldr	r3, [r7, #4]
 138 000c 7C22     		mov	r2, #124
 139 000e FF32     		add	r2, r2, #255
 140 0010 9342     		cmp	r3, r2
 141 0012 0CD0     		beq	.L12
 142 0014 7E22     		mov	r2, #126
 143 0016 FF32     		add	r2, r2, #255
 144 0018 9342     		cmp	r3, r2
 145 001a 0CD0     		beq	.L13
 146 001c BD22     		mov	r2, #189
 147 001e 5200     		lsl	r2, r2, #1
 148 0020 9342     		cmp	r3, r2
 149 0022 00D0     		beq	.L14
 145:.\BLE_HTSS.c  ****   {
 146:.\BLE_HTSS.c  ****     /* This event is received when indication are enabled by the central */
 147:.\BLE_HTSS.c  ****     case CYBLE_EVT_HTSS_INDICATION_ENABLED:
 148:.\BLE_HTSS.c  ****       /* Set the htssIndication flag */
 149:.\BLE_HTSS.c  ****       htssIndication = true;
 150:.\BLE_HTSS.c  ****     break;
 151:.\BLE_HTSS.c  **** 
 152:.\BLE_HTSS.c  ****     /* This event is received when indication are enabled by the central */
 153:.\BLE_HTSS.c  ****     case CYBLE_EVT_HTSS_INDICATION_DISABLED:
 154:.\BLE_HTSS.c  ****       /* Reset the htssIndiciation flag */
 155:.\BLE_HTSS.c  ****       htssIndication = false;
 156:.\BLE_HTSS.c  ****     break;
 157:.\BLE_HTSS.c  **** 
 158:.\BLE_HTSS.c  ****     /* This event is received when measurement interval is updated by
 159:.\BLE_HTSS.c  ****     *  the central */
 160:.\BLE_HTSS.c  ****     case CYBLE_EVT_HTSS_CHAR_WRITE:
 161:.\BLE_HTSS.c  ****       /* Retrive interval value */
 162:.\BLE_HTSS.c  ****       interval = ((CYBLE_HTS_CHAR_VALUE_T *)eventParam);
 163:.\BLE_HTSS.c  ****       htssInterval = interval->value->val[1];
 164:.\BLE_HTSS.c  ****       /* Update htssInterval with the updated value */
 165:.\BLE_HTSS.c  ****       htssInterval = (htssInterval << 8) | interval->value->val[0];
 166:.\BLE_HTSS.c  ****     break;
 167:.\BLE_HTSS.c  **** 
 168:.\BLE_HTSS.c  ****     default:
 169:.\BLE_HTSS.c  ****       /* Error handling */
 170:.\BLE_HTSS.c  ****     break;
 150              		.loc 1 170 0
 151 0024 1CE0     		b	.L10
 152              	.L14:
 149:.\BLE_HTSS.c  ****       htssIndication = true;
 153              		.loc 1 149 0
 154 0026 104B     		ldr	r3, .L16
 155 0028 0122     		mov	r2, #1
 156 002a 1A70     		strb	r2, [r3]
 150:.\BLE_HTSS.c  ****     break;
 157              		.loc 1 150 0
 158 002c 18E0     		b	.L10
 159              	.L12:
 155:.\BLE_HTSS.c  ****       htssIndication = false;
 160              		.loc 1 155 0
ARM GAS  C:\Users\Shahed\AppData\Local\Temp\ccVlMf9h.s 			page 7


 161 002e 0E4B     		ldr	r3, .L16
 162 0030 0022     		mov	r2, #0
 163 0032 1A70     		strb	r2, [r3]
 156:.\BLE_HTSS.c  ****     break;
 164              		.loc 1 156 0
 165 0034 14E0     		b	.L10
 166              	.L13:
 162:.\BLE_HTSS.c  ****       interval = ((CYBLE_HTS_CHAR_VALUE_T *)eventParam);
 167              		.loc 1 162 0
 168 0036 3B68     		ldr	r3, [r7]
 169 0038 FB60     		str	r3, [r7, #12]
 163:.\BLE_HTSS.c  ****       htssInterval = interval->value->val[1];
 170              		.loc 1 163 0
 171 003a FB68     		ldr	r3, [r7, #12]
 172 003c 5B68     		ldr	r3, [r3, #4]
 173 003e 1B68     		ldr	r3, [r3]
 174 0040 0133     		add	r3, r3, #1
 175 0042 1B78     		ldrb	r3, [r3]
 176 0044 1A1C     		mov	r2, r3
 177 0046 094B     		ldr	r3, .L16+4
 178 0048 1A60     		str	r2, [r3]
 165:.\BLE_HTSS.c  ****       htssInterval = (htssInterval << 8) | interval->value->val[0];
 179              		.loc 1 165 0
 180 004a 084B     		ldr	r3, .L16+4
 181 004c 1B68     		ldr	r3, [r3]
 182 004e 1A02     		lsl	r2, r3, #8
 183 0050 FB68     		ldr	r3, [r7, #12]
 184 0052 5B68     		ldr	r3, [r3, #4]
 185 0054 1B68     		ldr	r3, [r3]
 186 0056 1B78     		ldrb	r3, [r3]
 187 0058 1A43     		orr	r2, r3
 188 005a 044B     		ldr	r3, .L16+4
 189 005c 1A60     		str	r2, [r3]
 166:.\BLE_HTSS.c  ****     break;
 190              		.loc 1 166 0
 191 005e C046     		mov	r8, r8
 192              	.L10:
 171:.\BLE_HTSS.c  ****   }
 172:.\BLE_HTSS.c  **** }
 193              		.loc 1 172 0
 194 0060 BD46     		mov	sp, r7
 195 0062 04B0     		add	sp, sp, #16
 196              		@ sp needed
 197 0064 80BD     		pop	{r7, pc}
 198              	.L17:
 199 0066 C046     		.align	2
 200              	.L16:
 201 0068 00000000 		.word	htssIndication
 202 006c 00000000 		.word	htssInterval
 203              		.cfi_endproc
 204              	.LFE36:
 205              		.size	HtssEventHandler, .-HtssEventHandler
 206              		.section	.text.EnableBLE,"ax",%progbits
 207              		.align	2
 208              		.global	EnableBLE
 209              		.code	16
 210              		.thumb_func
ARM GAS  C:\Users\Shahed\AppData\Local\Temp\ccVlMf9h.s 			page 8


 211              		.type	EnableBLE, %function
 212              	EnableBLE:
 213              	.LFB37:
 173:.\BLE_HTSS.c  **** 
 174:.\BLE_HTSS.c  **** /*****************************************************************************
 175:.\BLE_HTSS.c  **** * Function Name: EnableBLE()
 176:.\BLE_HTSS.c  **** ******************************************************************************
 177:.\BLE_HTSS.c  **** * Summary:
 178:.\BLE_HTSS.c  **** * Starts the BLE component and register the call back functions for 
 179:.\BLE_HTSS.c  **** * common events, heart rate service specific events and watchdog interrupt.
 180:.\BLE_HTSS.c  **** *
 181:.\BLE_HTSS.c  **** * Parameters:
 182:.\BLE_HTSS.c  **** *  None.
 183:.\BLE_HTSS.c  **** *
 184:.\BLE_HTSS.c  **** * Return:
 185:.\BLE_HTSS.c  **** *  None.
 186:.\BLE_HTSS.c  **** *
 187:.\BLE_HTSS.c  **** * Side Effects:
 188:.\BLE_HTSS.c  **** * None
 189:.\BLE_HTSS.c  **** *
 190:.\BLE_HTSS.c  **** * Note:
 191:.\BLE_HTSS.c  **** *
 192:.\BLE_HTSS.c  **** *****************************************************************************/
 193:.\BLE_HTSS.c  **** void EnableBLE (void)
 194:.\BLE_HTSS.c  **** {
 214              		.loc 1 194 0
 215              		.cfi_startproc
 216 0000 80B5     		push	{r7, lr}
 217              		.cfi_def_cfa_offset 8
 218              		.cfi_offset 7, -8
 219              		.cfi_offset 14, -4
 220 0002 00AF     		add	r7, sp, #0
 221              		.cfi_def_cfa_register 7
 195:.\BLE_HTSS.c  ****     /* Enable BLE block and register the callback function for common events */
 196:.\BLE_HTSS.c  ****     CyBle_Start(GenericEventHandler);
 222              		.loc 1 196 0
 223 0004 044B     		ldr	r3, .L19
 224 0006 181C     		mov	r0, r3
 225 0008 FFF7FEFF 		bl	CyBle_Start
 197:.\BLE_HTSS.c  **** 
 198:.\BLE_HTSS.c  ****     /* Regsiters the callback function for heart rate service specific events */
 199:.\BLE_HTSS.c  ****     CyBle_HtsRegisterAttrCallback(HtssEventHandler);
 226              		.loc 1 199 0
 227 000c 034B     		ldr	r3, .L19+4
 228 000e 181C     		mov	r0, r3
 229 0010 FFF7FEFF 		bl	CyBle_HtsRegisterAttrCallback
 200:.\BLE_HTSS.c  **** }
 230              		.loc 1 200 0
 231 0014 BD46     		mov	sp, r7
 232              		@ sp needed
 233 0016 80BD     		pop	{r7, pc}
 234              	.L20:
 235              		.align	2
 236              	.L19:
 237 0018 00000000 		.word	GenericEventHandler
 238 001c 00000000 		.word	HtssEventHandler
 239              		.cfi_endproc
ARM GAS  C:\Users\Shahed\AppData\Local\Temp\ccVlMf9h.s 			page 9


 240              	.LFE37:
 241              		.size	EnableBLE, .-EnableBLE
 242              		.section	.text.ProcessBLE,"ax",%progbits
 243              		.align	2
 244              		.global	ProcessBLE
 245              		.code	16
 246              		.thumb_func
 247              		.type	ProcessBLE, %function
 248              	ProcessBLE:
 249              	.LFB38:
 201:.\BLE_HTSS.c  **** 
 202:.\BLE_HTSS.c  **** /*****************************************************************************
 203:.\BLE_HTSS.c  **** * Function Name: ()
 204:.\BLE_HTSS.c  **** ******************************************************************************
 205:.\BLE_HTSS.c  **** * Summary:
 206:.\BLE_HTSS.c  **** * If health thermometer indiications are enabled and device is connected then this
 207:.\BLE_HTSS.c  **** * functions transmits the temeprature information at htssInterval.
 208:.\BLE_HTSS.c  **** *
 209:.\BLE_HTSS.c  **** * Parameters:
 210:.\BLE_HTSS.c  **** *  uint32 - Measured temperature value.
 211:.\BLE_HTSS.c  **** *
 212:.\BLE_HTSS.c  **** * Return:
 213:.\BLE_HTSS.c  **** *  None.
 214:.\BLE_HTSS.c  **** *
 215:.\BLE_HTSS.c  **** * Side Effects:
 216:.\BLE_HTSS.c  **** * None
 217:.\BLE_HTSS.c  **** *
 218:.\BLE_HTSS.c  **** * Note:
 219:.\BLE_HTSS.c  **** *
 220:.\BLE_HTSS.c  **** *****************************************************************************/
 221:.\BLE_HTSS.c  **** void ProcessBLE (uint32 temperature)
 222:.\BLE_HTSS.c  **** {
 250              		.loc 1 222 0
 251              		.cfi_startproc
 252 0000 90B5     		push	{r4, r7, lr}
 253              		.cfi_def_cfa_offset 12
 254              		.cfi_offset 4, -12
 255              		.cfi_offset 7, -8
 256              		.cfi_offset 14, -4
 257 0002 85B0     		sub	sp, sp, #20
 258              		.cfi_def_cfa_offset 32
 259 0004 00AF     		add	r7, sp, #0
 260              		.cfi_def_cfa_register 7
 261 0006 7860     		str	r0, [r7, #4]
 223:.\BLE_HTSS.c  ****     /* Temporary array to hold Health Thermometer characteristic information */
 224:.\BLE_HTSS.c  ****     uint8 valueArray[HTSS_TEMPERATURE_MEASURE_SIZE];
 225:.\BLE_HTSS.c  ****     
 226:.\BLE_HTSS.c  ****     /* Check if indications are enabled and measurement interval has elapsed */
 227:.\BLE_HTSS.c  ****     if((true == htssIndication) && (SystemFlag & MEASUREMENT_INTERVAL))
 262              		.loc 1 227 0
 263 0008 214B     		ldr	r3, .L23
 264 000a 1B78     		ldrb	r3, [r3]
 265 000c 002B     		cmp	r3, #0
 266 000e 3BD0     		beq	.L21
 267              		.loc 1 227 0 is_stmt 0 discriminator 1
 268 0010 204B     		ldr	r3, .L23+4
 269 0012 1A68     		ldr	r2, [r3]
ARM GAS  C:\Users\Shahed\AppData\Local\Temp\ccVlMf9h.s 			page 10


 270 0014 0223     		mov	r3, #2
 271 0016 1340     		and	r3, r2
 272 0018 36D0     		beq	.L21
 228:.\BLE_HTSS.c  ****     {
 229:.\BLE_HTSS.c  ****         /* Clear measurement interval flag */
 230:.\BLE_HTSS.c  ****         SystemFlag &= ~MEASUREMENT_INTERVAL;
 273              		.loc 1 230 0 is_stmt 1
 274 001a 1E4B     		ldr	r3, .L23+4
 275 001c 1B68     		ldr	r3, [r3]
 276 001e 0222     		mov	r2, #2
 277 0020 191C     		mov	r1, r3
 278 0022 9143     		bic	r1, r2
 279 0024 0A1C     		mov	r2, r1
 280 0026 1B4B     		ldr	r3, .L23+4
 281 0028 1A60     		str	r2, [r3]
 231:.\BLE_HTSS.c  ****         
 232:.\BLE_HTSS.c  ****         /* Read Health Thermometer Characteristic from GATT DB */
 233:.\BLE_HTSS.c  ****         if(CYBLE_ERROR_OK == CyBle_HtssGetCharacteristicValue(CYBLE_HTS_TEMP_MEASURE, HTSS_TEMPERAT
 282              		.loc 1 233 0
 283 002a 3B1C     		mov	r3, r7
 284 002c 0833     		add	r3, r3, #8
 285 002e 0020     		mov	r0, #0
 286 0030 0621     		mov	r1, #6
 287 0032 1A1C     		mov	r2, r3
 288 0034 FFF7FEFF 		bl	CyBle_HtssGetCharacteristicValue
 289 0038 031C     		mov	r3, r0
 290 003a 002B     		cmp	r3, #0
 291 003c 24D1     		bne	.L21
 234:.\BLE_HTSS.c  ****         {
 235:.\BLE_HTSS.c  ****             /* Update temperature in the characteristic */
 236:.\BLE_HTSS.c  ****             valueArray[1] = LO8(LO16(temperature));
 292              		.loc 1 236 0
 293 003e 7B68     		ldr	r3, [r7, #4]
 294 0040 DAB2     		uxtb	r2, r3
 295 0042 3B1C     		mov	r3, r7
 296 0044 0833     		add	r3, r3, #8
 297 0046 5A70     		strb	r2, [r3, #1]
 237:.\BLE_HTSS.c  ****             valueArray[2] = HI8(LO16(temperature));
 298              		.loc 1 237 0
 299 0048 7B68     		ldr	r3, [r7, #4]
 300 004a 9BB2     		uxth	r3, r3
 301 004c 1B0A     		lsr	r3, r3, #8
 302 004e 9BB2     		uxth	r3, r3
 303 0050 DAB2     		uxtb	r2, r3
 304 0052 3B1C     		mov	r3, r7
 305 0054 0833     		add	r3, r3, #8
 306 0056 9A70     		strb	r2, [r3, #2]
 238:.\BLE_HTSS.c  ****             valueArray[3] = LO8(HI16(temperature));
 307              		.loc 1 238 0
 308 0058 7B68     		ldr	r3, [r7, #4]
 309 005a 1B0C     		lsr	r3, r3, #16
 310 005c DAB2     		uxtb	r2, r3
 311 005e 3B1C     		mov	r3, r7
 312 0060 0833     		add	r3, r3, #8
 313 0062 DA70     		strb	r2, [r3, #3]
 239:.\BLE_HTSS.c  ****             valueArray[4] = HI8(HI16(temperature));
 314              		.loc 1 239 0
ARM GAS  C:\Users\Shahed\AppData\Local\Temp\ccVlMf9h.s 			page 11


 315 0064 7B68     		ldr	r3, [r7, #4]
 316 0066 1B0C     		lsr	r3, r3, #16
 317 0068 9BB2     		uxth	r3, r3
 318 006a 1B0A     		lsr	r3, r3, #8
 319 006c 9BB2     		uxth	r3, r3
 320 006e DAB2     		uxtb	r2, r3
 321 0070 3B1C     		mov	r3, r7
 322 0072 0833     		add	r3, r3, #8
 323 0074 1A71     		strb	r2, [r3, #4]
 240:.\BLE_HTSS.c  ****             /* Send indication to the central */
 241:.\BLE_HTSS.c  ****             CyBle_HtssSendIndication(connectionHandle, CYBLE_HTS_TEMP_MEASURE, HTSS_TEMPERATURE_MEA
 324              		.loc 1 241 0
 325 0076 084B     		ldr	r3, .L23+8
 326 0078 3C1C     		mov	r4, r7
 327 007a 0834     		add	r4, r4, #8
 328 007c 1868     		ldr	r0, [r3]
 329 007e 0021     		mov	r1, #0
 330 0080 0622     		mov	r2, #6
 331 0082 231C     		mov	r3, r4
 332 0084 FFF7FEFF 		bl	CyBle_HtssSendIndication
 333              	.L21:
 242:.\BLE_HTSS.c  ****         }
 243:.\BLE_HTSS.c  ****     }
 244:.\BLE_HTSS.c  **** }
 334              		.loc 1 244 0
 335 0088 BD46     		mov	sp, r7
 336 008a 05B0     		add	sp, sp, #20
 337              		@ sp needed
 338 008c 90BD     		pop	{r4, r7, pc}
 339              	.L24:
 340 008e C046     		.align	2
 341              	.L23:
 342 0090 00000000 		.word	htssIndication
 343 0094 00000000 		.word	SystemFlag
 344 0098 00000000 		.word	connectionHandle
 345              		.cfi_endproc
 346              	.LFE38:
 347              		.size	ProcessBLE, .-ProcessBLE
 348              		.text
 349              	.Letext0:
 350              		.file 2 ".\\Generated_Source\\PSoC4/cytypes.h"
 351              		.file 3 ".\\Generated_Source\\PSoC4/BLE_Stack.h"
 352              		.file 4 ".\\Generated_Source\\PSoC4/BLE_StackGatt.h"
 353              		.file 5 ".\\Generated_Source\\PSoC4/BLE_dis.h"
 354              		.file 6 ".\\Generated_Source\\PSoC4/BLE_hts.h"
 355              		.file 7 ".\\Generated_Source\\PSoC4/BLE_eventHandler.h"
 356              		.file 8 ".\\CommonFunctions.h"