ARM GAS  C:\Users\Shahed\AppData\Local\Temp\ccKSrjpg.s 			page 1


   1              		.cpu cortex-m0
   2              		.fpu softvfp
   3              		.eabi_attribute 20, 1
   4              		.eabi_attribute 21, 1
   5              		.eabi_attribute 23, 3
   6              		.eabi_attribute 24, 1
   7              		.eabi_attribute 25, 1
   8              		.eabi_attribute 26, 1
   9              		.eabi_attribute 30, 6
  10              		.eabi_attribute 34, 0
  11              		.eabi_attribute 18, 4
  12              		.code	16
  13              		.file	"main.c"
  14              		.text
  15              	.Ltext0:
  16              		.cfi_sections	.debug_frame
  17              		.section	.text.main,"ax",%progbits
  18              		.align	2
  19              		.global	main
  20              		.code	16
  21              		.thumb_func
  22              		.type	main, %function
  23              	main:
  24              	.LFB35:
  25              		.file 1 ".\\main.c"
   1:.\main.c      **** /****************************************************************************
   2:.\main.c      **** * 
   3:.\main.c      **** *****************************************************************************/
   4:.\main.c      **** #include <project.h>
   5:.\main.c      **** #include "CommonFunctions.h"
   6:.\main.c      **** #include "Temperature.h"
   7:.\main.c      **** #include "BLE_HTSS.h"
   8:.\main.c      **** 
   9:.\main.c      **** /*****************************************************************************
  10:.\main.c      **** * Function Name: main()
  11:.\main.c      **** ******************************************************************************
  12:.\main.c      **** * Summary:
  13:.\main.c      **** * Central function which controls the application flow
  14:.\main.c      **** *
  15:.\main.c      **** * Parameters:
  16:.\main.c      **** * None
  17:.\main.c      **** *
  18:.\main.c      **** * Return:
  19:.\main.c      **** * None
  20:.\main.c      **** *
  21:.\main.c      **** * Theory:
  22:.\main.c      **** * Central function which is entered on power up. This function controls
  23:.\main.c      **** * the complete application which includes BLE processing, temperature 
  24:.\main.c      **** * measurement and power mode transitions.
  25:.\main.c      **** *
  26:.\main.c      **** * Side Effects:
  27:.\main.c      **** * None
  28:.\main.c      **** *
  29:.\main.c      **** * Note:
  30:.\main.c      **** *
  31:.\main.c      **** *****************************************************************************/
  32:.\main.c      **** int main()
ARM GAS  C:\Users\Shahed\AppData\Local\Temp\ccKSrjpg.s 			page 2


  33:.\main.c      **** {
  26              		.loc 1 33 0
  27              		.cfi_startproc
  28 0000 90B5     		push	{r4, r7, lr}
  29              		.cfi_def_cfa_offset 12
  30              		.cfi_offset 4, -12
  31              		.cfi_offset 7, -8
  32              		.cfi_offset 14, -4
  33 0002 83B0     		sub	sp, sp, #12
  34              		.cfi_def_cfa_offset 24
  35 0004 00AF     		add	r7, sp, #0
  36              		.cfi_def_cfa_register 7
  34:.\main.c      ****    
  35:.\main.c      ****     
  36:.\main.c      ****     /* Powerstate indicators of BLESS */
  37:.\main.c      ****     CYBLE_LP_MODE_T lpMode = CYBLE_BLESS_DEEPSLEEP;
  37              		.loc 1 37 0
  38 0006 FB1D     		add	r3, r7, #7
  39 0008 0322     		mov	r2, #3
  40 000a 1A70     		strb	r2, [r3]
  38:.\main.c      ****     CYBLE_BLESS_STATE_T blessState = CYBLE_BLESS_STATE_DEEPSLEEP;
  41              		.loc 1 38 0
  42 000c BB1D     		add	r3, r7, #6
  43 000e 0622     		mov	r2, #6
  44 0010 1A70     		strb	r2, [r3]
  39:.\main.c      ****     
  40:.\main.c      ****     /* Local variable used to store temperature information */
  41:.\main.c      ****     uint32 temperature;
  42:.\main.c      ****     
  43:.\main.c      ****  
  44:.\main.c      ****     /* Enable global interrupt, required for BLESS operation */
  45:.\main.c      ****     CyGlobalIntEnable; 
  45              		.loc 1 45 0
  46              	@ 45 ".\main.c" 1
  47 0012 62B6     		CPSIE   i
  48              	@ 0 "" 2
  46:.\main.c      ****     
  47:.\main.c      ****     /* Initialize the complete system */
  48:.\main.c      ****     InitializeSystem();
  49              		.loc 1 48 0
  50              		.code	16
  51 0014 FFF7FEFF 		bl	InitializeSystem
  52              	.L8:
  49:.\main.c      ****     
  50:.\main.c      ****     /* Infinite loop */
  51:.\main.c      ****     for(;;)
  52:.\main.c      ****     {
  53:.\main.c      ****         /* Process all pending BLE events in the stack */
  54:.\main.c      ****         CyBle_ProcessEvents();
  53              		.loc 1 54 0
  54 0018 FFF7FEFF 		bl	CyBle_ProcessEvents
  55:.\main.c      ****         
  56:.\main.c      ****         /***********************************************************************
  57:.\main.c      ****         * Wait for connection established with Central device
  58:.\main.c      ****         ***********************************************************************/
  59:.\main.c      ****         if(CyBle_GetState() == CYBLE_STATE_CONNECTED)
  55              		.loc 1 59 0
ARM GAS  C:\Users\Shahed\AppData\Local\Temp\ccKSrjpg.s 			page 3


  56 001c 264B     		ldr	r3, .L9
  57 001e 1B78     		ldrb	r3, [r3]
  58 0020 022B     		cmp	r3, #2
  59 0022 18D1     		bne	.L2
  60:.\main.c      ****         {
  61:.\main.c      ****             /* Process all pending BLE events in the stack */
  62:.\main.c      ****             CyBle_ProcessEvents();
  60              		.loc 1 62 0
  61 0024 FFF7FEFF 		bl	CyBle_ProcessEvents
  63:.\main.c      ****             /* Periodically measure temperature and send results to the Client */
  64:.\main.c      ****             if(SystemFlag & WAKEUP_SOURCE_WDT)
  62              		.loc 1 64 0
  63 0028 244B     		ldr	r3, .L9+4
  64 002a 1A68     		ldr	r2, [r3]
  65 002c 0123     		mov	r3, #1
  66 002e 1340     		and	r3, r2
  67 0030 11D0     		beq	.L2
  65:.\main.c      ****             {
  66:.\main.c      ****                 /* Clear WDT wakeup source flag */
  67:.\main.c      ****                 SystemFlag &= ~WAKEUP_SOURCE_WDT;
  68              		.loc 1 67 0
  69 0032 224B     		ldr	r3, .L9+4
  70 0034 1B68     		ldr	r3, [r3]
  71 0036 0122     		mov	r2, #1
  72 0038 191C     		mov	r1, r3
  73 003a 9143     		bic	r1, r2
  74 003c 0A1C     		mov	r2, r1
  75 003e 1F4B     		ldr	r3, .L9+4
  76 0040 1A60     		str	r2, [r3]
  68:.\main.c      ****                 /* Wakeup the system from deep sleep */
  69:.\main.c      ****                 WakeupFromDeepSleep();
  77              		.loc 1 69 0
  78 0042 FFF7FEFF 		bl	WakeupFromDeepSleep
  70:.\main.c      ****                 /* Measure temperature */
  71:.\main.c      ****                 temperature = ProcessTemperature();
  79              		.loc 1 71 0
  80 0046 FFF7FEFF 		bl	ProcessTemperature
  81 004a 031C     		mov	r3, r0
  82 004c 3B60     		str	r3, [r7]
  72:.\main.c      ****                 /* Send temperature information over BLE */
  73:.\main.c      ****                 ProcessBLE(temperature);    
  83              		.loc 1 73 0
  84 004e 3B68     		ldr	r3, [r7]
  85 0050 181C     		mov	r0, r3
  86 0052 FFF7FEFF 		bl	ProcessBLE
  87              	.L2:
  74:.\main.c      ****                      
  75:.\main.c      **** 
  76:.\main.c      ****                 
  77:.\main.c      ****             }
  78:.\main.c      ****         }
  79:.\main.c      ****         
  80:.\main.c      ****         if(CyBle_GetState() != CYBLE_STATE_INITIALIZING)
  88              		.loc 1 80 0
  89 0056 184B     		ldr	r3, .L9
  90 0058 1B78     		ldrb	r3, [r3]
  91 005a 012B     		cmp	r3, #1
ARM GAS  C:\Users\Shahed\AppData\Local\Temp\ccKSrjpg.s 			page 4


  92 005c 2AD0     		beq	.L3
  81:.\main.c      ****         {
  82:.\main.c      ****             /* Disable all hardware blocks */
  83:.\main.c      ****             PrepareForDeepSleep();
  93              		.loc 1 83 0
  94 005e FFF7FEFF 		bl	PrepareForDeepSleep
  84:.\main.c      ****             /* Enter Deep Sleep mode between connection intervals */
  85:.\main.c      ****             lpMode = CyBle_EnterLPM(CYBLE_BLESS_DEEPSLEEP);
  95              		.loc 1 85 0
  96 0062 FC1D     		add	r4, r7, #7
  97 0064 0320     		mov	r0, #3
  98 0066 FFF7FEFF 		bl	CyBle_EnterLPM
  99 006a 031C     		mov	r3, r0
 100 006c 2370     		strb	r3, [r4]
  86:.\main.c      ****             
  87:.\main.c      ****             /* Disable global interrupts to avoid race condition */
  88:.\main.c      ****             CyGlobalIntDisable;
 101              		.loc 1 88 0
 102              	@ 88 ".\main.c" 1
 103 006e 72B6     		CPSID   i
 104              	@ 0 "" 2
  89:.\main.c      ****             blessState = CyBle_GetBleSsState();
 105              		.loc 1 89 0
 106              		.code	16
 107 0070 BC1D     		add	r4, r7, #6
 108 0072 FFF7FEFF 		bl	CyBle_GetBleSsState
 109 0076 031C     		mov	r3, r0
 110 0078 2370     		strb	r3, [r4]
  90:.\main.c      **** 
  91:.\main.c      ****             /* Try putting system in DeepSleep mode if BLESS succesfully entered Deep Sleep mode*/
  92:.\main.c      ****             if(lpMode == CYBLE_BLESS_DEEPSLEEP) 
 111              		.loc 1 92 0
 112 007a FB1D     		add	r3, r7, #7
 113 007c 1B78     		ldrb	r3, [r3]
 114 007e 032B     		cmp	r3, #3
 115 0080 0AD1     		bne	.L4
  93:.\main.c      ****             {   
  94:.\main.c      ****                 /* If BLESS is in Deep Sleep or is in the process of waking up from Deep Sleep,
  95:.\main.c      ****                  * put system in Deep Sleep mode */
  96:.\main.c      ****                 if(blessState == CYBLE_BLESS_STATE_ECO_ON || blessState == CYBLE_BLESS_STATE_DEEPSL
 116              		.loc 1 96 0
 117 0082 BB1D     		add	r3, r7, #6
 118 0084 1B78     		ldrb	r3, [r3]
 119 0086 042B     		cmp	r3, #4
 120 0088 03D0     		beq	.L5
 121              		.loc 1 96 0 is_stmt 0 discriminator 1
 122 008a BB1D     		add	r3, r7, #6
 123 008c 1B78     		ldrb	r3, [r3]
 124 008e 062B     		cmp	r3, #6
 125 0090 0ED1     		bne	.L7
 126              	.L5:
  97:.\main.c      ****                 {
  98:.\main.c      ****                     CySysPmDeepSleep();
 127              		.loc 1 98 0 is_stmt 1
 128 0092 FFF7FEFF 		bl	CySysPmDeepSleep
 129 0096 0BE0     		b	.L7
 130              	.L4:
ARM GAS  C:\Users\Shahed\AppData\Local\Temp\ccKSrjpg.s 			page 5


  99:.\main.c      ****                 }
 100:.\main.c      ****             }
 101:.\main.c      ****             /* If BLESS is in Active state */
 102:.\main.c      ****             else
 103:.\main.c      ****             {
 104:.\main.c      ****                 /* If BLESS Tx/Rx Event is not complete, reduce IMO and put CPU to Sleep */
 105:.\main.c      ****                 if(blessState != CYBLE_BLESS_STATE_EVENT_CLOSE)
 131              		.loc 1 105 0
 132 0098 BB1D     		add	r3, r7, #6
 133 009a 1B78     		ldrb	r3, [r3]
 134 009c 022B     		cmp	r3, #2
 135 009e 07D0     		beq	.L7
 106:.\main.c      ****                 {
 107:.\main.c      ****                     CySysClkWriteImoFreq(IMO_FREQUENCY_3MHZ);
 136              		.loc 1 107 0
 137 00a0 0320     		mov	r0, #3
 138 00a2 FFF7FEFF 		bl	CySysClkWriteImoFreq
 108:.\main.c      ****                     CySysPmSleep();
 139              		.loc 1 108 0
 140 00a6 FFF7FEFF 		bl	CySysPmSleep
 109:.\main.c      ****                     CySysClkWriteImoFreq(IMO_FREQUENCY_12MHZ);
 141              		.loc 1 109 0
 142 00aa 0C20     		mov	r0, #12
 143 00ac FFF7FEFF 		bl	CySysClkWriteImoFreq
 144              	.L7:
 110:.\main.c      ****                 }
 111:.\main.c      ****             }
 112:.\main.c      ****             /* Enable interrupts for normal operation */
 113:.\main.c      ****             CyGlobalIntEnable;
 145              		.loc 1 113 0
 146              	@ 113 ".\main.c" 1
 147 00b0 62B6     		CPSIE   i
 148              	@ 0 "" 2
 114:.\main.c      ****             
 115:.\main.c      ****            
 116:.\main.c      ****         }
 117:.\main.c      ****         
 118:.\main.c      ****         /* If Hibernate is enabled then put system in hibernate state
 119:.\main.c      ****         if(SystemFlag & ENABLE_HIBERNATE)
 120:.\main.c      ****         {
 121:.\main.c      ****             Enable ISR for the pin to wakeup the device from hibernate
 122:.\main.c      ****             Wakeup_ISR_Start();
 123:.\main.c      ****             
 124:.\main.c      ****             Put sytem to hibernate 
 125:.\main.c      ****             CySysPmHibernate();
 126:.\main.c      ****         }
 127:.\main.c      ****         */
 128:.\main.c      ****     }
 149              		.loc 1 128 0
 150              		.code	16
 151 00b2 B1E7     		b	.L8
 152              	.L3:
 153 00b4 B0E7     		b	.L8
 154              	.L10:
 155 00b6 C046     		.align	2
 156              	.L9:
 157 00b8 00000000 		.word	cyBle_state
ARM GAS  C:\Users\Shahed\AppData\Local\Temp\ccKSrjpg.s 			page 6


 158 00bc 00000000 		.word	SystemFlag
 159              		.cfi_endproc
 160              	.LFE35:
 161              		.size	main, .-main
 162              		.text
 163              	.Letext0:
 164              		.file 2 ".\\Generated_Source\\PSoC4/cytypes.h"
 165              		.file 3 ".\\Generated_Source\\PSoC4/BLE_Stack.h"
 166              		.file 4 ".\\Generated_Source\\PSoC4/BLE_eventHandler.h"
 167              		.file 5 ".\\CommonFunctions.h"